; Function Attrs: mustprogress uwtable
define internal fastcc noundef range(i32 4, 9) i32 @_ZL10nFloatSizeP16gmx_trr_header_t(ptr noundef readonly captures(none) %0) unnamed_addr #0 personality ptr @__gxx_personality_v0 {
  %2 = alloca %"class.std::__cxx11::basic_string", align 8
  %3 = alloca %"class.std::allocator", align 1
  %4 = alloca %"class.std::filesystem::__cxx11::path", align 8
  %5 = alloca %"class.std::filesystem::__cxx11::path", align 8
  %6 = getelementptr inbounds nuw i8, ptr %0, i64 12
  %7 = load i32, ptr %6, align 4, !tbaa !33
  %.not = icmp eq i32 %7, 0
  br i1 %.not, label %10, label %8

8:                                                ; preds = %1
  %9 = sdiv i32 %7, 9
  br label %53

10:                                               ; preds = %1
  %11 = getelementptr inbounds nuw i8, ptr %0, i64 32
  %12 = load i32, ptr %11, align 8, !tbaa !34
  %.not26 = icmp eq i32 %12, 0
  br i1 %.not26, label %18, label %13

13:                                               ; preds = %10
  %14 = getelementptr inbounds nuw i8, ptr %0, i64 44
  %15 = load i32, ptr %14, align 4, !tbaa !35
  %16 = mul i32 %15, 3
  %17 = udiv i32 %12, %16
  br label %53

18:                                               ; preds = %10
  %19 = getelementptr inbounds nuw i8, ptr %0, i64 36
  %20 = load i32, ptr %19, align 4, !tbaa !36
  %.not27 = icmp eq i32 %20, 0
  br i1 %.not27, label %26, label %21

21:                                               ; preds = %18
  %22 = getelementptr inbounds nuw i8, ptr %0, i64 44
  %23 = load i32, ptr %22, align 4, !tbaa !35
  %24 = mul i32 %23, 3
  %25 = udiv i32 %20, %24
  br label %53

26:                                               ; preds = %18
  %27 = getelementptr inbounds nuw i8, ptr %0, i64 40
  %28 = load i32, ptr %27, align 8, !tbaa !37
  %.not28 = icmp eq i32 %28, 0
  br i1 %.not28, label %34, label %29

29:                                               ; preds = %26
  %30 = getelementptr inbounds nuw i8, ptr %0, i64 44
  %31 = load i32, ptr %30, align 4, !tbaa !35
  %32 = mul i32 %31, 3
  %33 = udiv i32 %28, %32
  br label %53

34:                                               ; preds = %26
  call void @llvm.lifetime.start.p0(i64 32, ptr nonnull %2) #13
  call void @llvm.lifetime.start.p0(i64 1, ptr nonnull %3) #13
  invoke void @_ZNSt7__cxx1112basic_stringIcSt11char_traitsIcESaIcEEC2IS3_EEPKcRKS3_(ptr noundef nonnull align 8 dereferenceable(32) %2, ptr noundef nonnull @.str.27, ptr noundef nonnull align 1 dereferenceable(1) %3)
          to label %35 unwind label %38

35:                                               ; preds = %34
  call void @llvm.lifetime.start.p0(i64 40, ptr nonnull %4) #13
  invoke void @_ZNSt10filesystem7__cxx114pathC2IA122_cS1_EERKT_NS1_6formatE(ptr noundef nonnull align 8 dereferenceable(40) %4, ptr noundef nonnull align 1 dereferenceable(122) @.str.1, i8 noundef zeroext 2)
          to label %36 unwind label %40

36:                                               ; preds = %35
  invoke void @_Z18gmx_error_functionPKcRKNSt7__cxx1112basic_stringIcSt11char_traitsIcESaIcEEERKNSt10filesystem7__cxx114pathEi(ptr noundef nonnull @.str.26, ptr noundef nonnull align 8 dereferenceable(32) %2, ptr noundef nonnull align 8 dereferenceable(40) %4, i32 noundef 74) #14
          to label %37 unwind label %42

37:                                               ; preds = %36
  unreachable

38:                                               ; preds = %34
  %39 = landingpad { ptr, i32 }
          cleanup
  br label %_ZNSt7__cxx1112basic_stringIcSt11char_traitsIcESaIcEED2Ev.exit

40:                                               ; preds = %35
  %41 = landingpad { ptr, i32 }
          cleanup
  br label %44

42:                                               ; preds = %36
  %43 = landingpad { ptr, i32 }
          cleanup
  call void @_ZNSt10filesystem7__cxx114pathD2Ev(ptr noundef nonnull align 8 dereferenceable(40) %4) #13
  br label %44

44:                                               ; preds = %42, %40
  %.pn = phi { ptr, i32 } [ %43, %42 ], [ %41, %40 ]
  call void @llvm.lifetime.end.p0(i64 40, ptr nonnull %4) #13
  %45 = load ptr, ptr %2, align 8, !tbaa !4
  %46 = getelementptr inbounds nuw i8, ptr %2, i64 16
  %47 = icmp eq ptr %45, %46
  br i1 %47, label %_ZNKSt7__cxx1112basic_stringIcSt11char_traitsIcESaIcEE11_M_is_localEv.exit.thread.i.i, label %_ZNKSt7__cxx1112basic_stringIcSt11char_traitsIcESaIcEE11_M_is_localEv.exit.i.i

_ZNKSt7__cxx1112basic_stringIcSt11char_traitsIcESaIcEE11_M_is_localEv.exit.thread.i.i: ; preds = %44
  %48 = getelementptr inbounds nuw i8, ptr %2, i64 8
  %49 = load i64, ptr %48, align 8, !tbaa !12
  %50 = icmp ult i64 %49, 16
  call void @llvm.assume(i1 %50)
  br label %_ZNSt7__cxx1112basic_stringIcSt11char_traitsIcESaIcEED2Ev.exit

_ZNKSt7__cxx1112basic_stringIcSt11char_traitsIcESaIcEE11_M_is_localEv.exit.i.i: ; preds = %44
  %51 = load i64, ptr %46, align 8, !tbaa !13
  %52 = add i64 %51, 1
  call void @_ZdlPvm(ptr noundef %45, i64 noundef %52) #15
  br label %_ZNSt7__cxx1112basic_stringIcSt11char_traitsIcESaIcEED2Ev.exit

_ZNSt7__cxx1112basic_stringIcSt11char_traitsIcESaIcEED2Ev.exit: ; preds = %_ZNKSt7__cxx1112basic_stringIcSt11char_traitsIcESaIcEE11_M_is_localEv.exit.i.i, %_ZNKSt7__cxx1112basic_stringIcSt11char_traitsIcESaIcEE11_M_is_localEv.exit.thread.i.i, %38
  %.pn.pn = phi { ptr, i32 } [ %39, %38 ], [ %.pn, %_ZNKSt7__cxx1112basic_stringIcSt11char_traitsIcESaIcEE11_M_is_localEv.exit.thread.i.i ], [ %.pn, %_ZNKSt7__cxx1112basic_stringIcSt11char_traitsIcESaIcEE11_M_is_localEv.exit.i.i ]
  call void @llvm.lifetime.end.p0(i64 1, ptr nonnull %3) #13
  call void @llvm.lifetime.end.p0(i64 32, ptr nonnull %2) #13
  br label %59

53:                                               ; preds = %13, %29, %21, %8
  %.021 = phi i32 [ %9, %8 ], [ %17, %13 ], [ %25, %21 ], [ %33, %29 ]
  switch i32 %.021, label %54 [
    i32 8, label %58
    i32 4, label %58
  ]

54:                                               ; preds = %53
  call void @llvm.lifetime.start.p0(i64 40, ptr nonnull %5) #13
  call void @_ZNSt10filesystem7__cxx114pathC2IA122_cS1_EERKT_NS1_6formatE(ptr noundef nonnull align 8 dereferenceable(40) %5, ptr noundef nonnull align 1 dereferenceable(122) @.str.1, i8 noundef zeroext 2)
  invoke void (i32, ptr, i32, ptr, ...) @_Z9gmx_fataliRKNSt10filesystem7__cxx114pathEiPKcz(i32 noundef 0, ptr noundef nonnull align 8 dereferenceable(40) %5, i32 noundef 79, ptr noundef nonnull @.str.28, i32 noundef %.021) #14
          to label %55 unwind label %56

55:                                               ; preds = %54
  unreachable

56:                                               ; preds = %54
  %57 = landingpad { ptr, i32 }
          cleanup
  call void @_ZNSt10filesystem7__cxx114pathD2Ev(ptr noundef nonnull align 8 dereferenceable(40) %5) #13
  call void @llvm.lifetime.end.p0(i64 40, ptr nonnull %5) #13
  br label %59

58:                                               ; preds = %53, %53
  ret i32 %.021

59:                                               ; preds = %56, %_ZNSt7__cxx1112basic_stringIcSt11char_traitsIcESaIcEED2Ev.exit
  %.pn31 = phi { ptr, i32 } [ %57, %56 ], [ %.pn.pn, %_ZNSt7__cxx1112basic_stringIcSt11char_traitsIcESaIcEED2Ev.exit ]
  resume { ptr, i32 } %.pn31
}